target datalayout = "e-m:e-p270:32:32-p271:32:32-p272:64:64-i64:64-i128:128-f80:128-n8:16:32:64-S128"
target triple = "x86_64-pc-linux-gnu"

%"class.icu_77::BytesTrie" = type <{ ptr, ptr, ptr, i32, [4 x i8] }>

; Function Attrs: inlinehint mustprogress nounwind uwtable
define linkonce_odr noundef ptr @_ZN6icu_779BytesTrie9skipValueEPKhi(ptr noundef %0, i32 noundef %1) #5 comdat align 2 {
  %3 = alloca ptr, align 8
  %4 = alloca i32, align 4
  store ptr %0, ptr %3, align 8, !tbaa !12
  store i32 %1, ptr %4, align 4, !tbaa !13
  %5 = load i32, ptr %4, align 4, !tbaa !13
  %6 = icmp sge i32 %5, 162
  br i1 %6, label %7, label %29

7:                                                ; preds = %2
  %8 = load i32, ptr %4, align 4, !tbaa !13
  %9 = icmp slt i32 %8, 216
  br i1 %9, label %10, label %13

10:                                               ; preds = %7
  %11 = load ptr, ptr %3, align 8, !tbaa !12
  %12 = getelementptr inbounds nuw i8, ptr %11, i32 1
  store ptr %12, ptr %3, align 8, !tbaa !12
  br label %28

13:                                               ; preds = %7
  %14 = load i32, ptr %4, align 4, !tbaa !13
  %15 = icmp slt i32 %14, 252
  br i1 %15, label %16, label %19

16:                                               ; preds = %13
  %17 = load ptr, ptr %3, align 8, !tbaa !12
  %18 = getelementptr inbounds i8, ptr %17, i64 2
  store ptr %18, ptr %3, align 8, !tbaa !12
  br label %27

19:                                               ; preds = %13
  %20 = load i32, ptr %4, align 4, !tbaa !13
  %21 = ashr i32 %20, 1
  %22 = and i32 %21, 1
  %23 = add nsw i32 3, %22
  %24 = load ptr, ptr %3, align 8, !tbaa !12
  %25 = sext i32 %23 to i64
  %26 = getelementptr inbounds i8, ptr %24, i64 %25
  store ptr %26, ptr %3, align 8, !tbaa !12
  br label %27

27:                                               ; preds = %19, %16
  br label %28

28:                                               ; preds = %27, %10
  br label %29

29:                                               ; preds = %28, %2
  %30 = load ptr, ptr %3, align 8, !tbaa !12
  ret ptr %30
}

; Function Attrs: mustprogress uwtable
define void @_ZN6icu_779BytesTrie6appendERNS_8ByteSinkEi(ptr noundef nonnull align 8 dereferenceable(8) %0, i32 noundef %1) #4 align 2 {
  %3 = alloca ptr, align 8
  %4 = alloca i32, align 4
  %5 = alloca i8, align 1
  store ptr %0, ptr %3, align 8, !tbaa !32
  store i32 %1, ptr %4, align 4, !tbaa !13
  call void @llvm.lifetime.start.p0(i64 1, ptr %5) #8
  %6 = load i32, ptr %4, align 4, !tbaa !13
  %7 = trunc i32 %6 to i8
  store i8 %7, ptr %5, align 1, !tbaa !14
  %8 = load ptr, ptr %3, align 8, !tbaa !32
  %9 = load ptr, ptr %8, align 8, !tbaa !34
  %10 = getelementptr inbounds ptr, ptr %9, i64 2
  %11 = load ptr, ptr %10, align 8
  call void %11(ptr noundef nonnull align 8 dereferenceable(8) %8, ptr noundef %5, i32 noundef 1)
  call void @llvm.lifetime.end.p0(i64 1, ptr %5) #8
  ret void
}

; Function Attrs: mustprogress uwtable
define noundef i32 @_ZNK6icu_779BytesTrie12getNextBytesERNS_8ByteSinkE(ptr noundef nonnull align 8 dereferenceable(28) %0, ptr noundef nonnull align 8 dereferenceable(8) %1) #4 align 2 {
  %3 = alloca i32, align 4
  %4 = alloca ptr, align 8
  %5 = alloca ptr, align 8
  %6 = alloca ptr, align 8
  %7 = alloca i32, align 4
  %8 = alloca i32, align 4
  store ptr %0, ptr %4, align 8, !tbaa !3
  store ptr %1, ptr %5, align 8, !tbaa !32
  %9 = load ptr, ptr %4, align 8
  call void @llvm.lifetime.start.p0(i64 8, ptr %6) #8
  %10 = getelementptr inbounds nuw %"class.icu_77::BytesTrie", ptr %9, i32 0, i32 2
  %11 = load ptr, ptr %10, align 8, !tbaa !15
  store ptr %11, ptr %6, align 8, !tbaa !12
  %12 = load ptr, ptr %6, align 8, !tbaa !12
  %13 = icmp eq ptr %12, null
  br i1 %13, label %14, label %15

14:                                               ; preds = %2
  store i32 0, ptr %3, align 4
  store i32 1, ptr %7, align 4
  br label %68

15:                                               ; preds = %2
  %16 = getelementptr inbounds nuw %"class.icu_77::BytesTrie", ptr %9, i32 0, i32 3
  %17 = load i32, ptr %16, align 8, !tbaa !16
  %18 = icmp sge i32 %17, 0
  br i1 %18, label %19, label %24

19:                                               ; preds = %15
  %20 = load ptr, ptr %5, align 8, !tbaa !32
  %21 = load ptr, ptr %6, align 8, !tbaa !12
  %22 = load i8, ptr %21, align 1, !tbaa !14
  %23 = zext i8 %22 to i32
  call void @_ZN6icu_779BytesTrie6appendERNS_8ByteSinkEi(ptr noundef nonnull align 8 dereferenceable(8) %20, i32 noundef %23)
  store i32 1, ptr %3, align 4
  store i32 1, ptr %7, align 4
  br label %68

24:                                               ; preds = %15
  call void @llvm.lifetime.start.p0(i64 4, ptr %8) #8
  %25 = load ptr, ptr %6, align 8, !tbaa !12
  %26 = getelementptr inbounds nuw i8, ptr %25, i32 1
  store ptr %26, ptr %6, align 8, !tbaa !12
  %27 = load i8, ptr %25, align 1, !tbaa !14
  %28 = zext i8 %27 to i32
  store i32 %28, ptr %8, align 4, !tbaa !13
  %29 = load i32, ptr %8, align 4, !tbaa !13
  %30 = icmp sge i32 %29, 32
  br i1 %30, label %31, label %45

31:                                               ; preds = %24
  %32 = load i32, ptr %8, align 4, !tbaa !13
  %33 = and i32 %32, 1
  %34 = icmp ne i32 %33, 0
  br i1 %34, label %35, label %36

35:                                               ; preds = %31
  store i32 0, ptr %3, align 4
  store i32 1, ptr %7, align 4
  br label %67

36:                                               ; preds = %31
  %37 = load ptr, ptr %6, align 8, !tbaa !12
  %38 = load i32, ptr %8, align 4, !tbaa !13
  %39 = call noundef ptr @_ZN6icu_779BytesTrie9skipValueEPKhi(ptr noundef %37, i32 noundef %38)
  store ptr %39, ptr %6, align 8, !tbaa !12
  %40 = load ptr, ptr %6, align 8, !tbaa !12
  %41 = getelementptr inbounds nuw i8, ptr %40, i32 1
  store ptr %41, ptr %6, align 8, !tbaa !12
  %42 = load i8, ptr %40, align 1, !tbaa !14
  %43 = zext i8 %42 to i32
  store i32 %43, ptr %8, align 4, !tbaa !13
  br label %44

44:                                               ; preds = %36
  br label %45

45:                                               ; preds = %44, %24
  %46 = load i32, ptr %8, align 4, !tbaa !13
  %47 = icmp slt i32 %46, 16
  br i1 %47, label %48, label %62

48:                                               ; preds = %45
  %49 = load i32, ptr %8, align 4, !tbaa !13
  %50 = icmp eq i32 %49, 0
  br i1 %50, label %51, label %56

51:                                               ; preds = %48
  %52 = load ptr, ptr %6, align 8, !tbaa !12
  %53 = getelementptr inbounds nuw i8, ptr %52, i32 1
  store ptr %53, ptr %6, align 8, !tbaa !12
  %54 = load i8, ptr %52, align 1, !tbaa !14
  %55 = zext i8 %54 to i32
  store i32 %55, ptr %8, align 4, !tbaa !13
  br label %56

56:                                               ; preds = %51, %48
  %57 = load ptr, ptr %6, align 8, !tbaa !12
  %58 = load i32, ptr %8, align 4, !tbaa !13
  %59 = add nsw i32 %58, 1
  store i32 %59, ptr %8, align 4, !tbaa !13
  %60 = load ptr, ptr %5, align 8, !tbaa !32
  call void @_ZN6icu_779BytesTrie18getNextBranchBytesEPKhiRNS_8ByteSinkE(ptr noundef %57, i32 noundef %59, ptr noundef nonnull align 8 dereferenceable(8) %60)
  %61 = load i32, ptr %8, align 4, !tbaa !13
  store i32 %61, ptr %3, align 4
  store i32 1, ptr %7, align 4
  br label %67

62:                                               ; preds = %45
  %63 = load ptr, ptr %5, align 8, !tbaa !32
  %64 = load ptr, ptr %6, align 8, !tbaa !12
  %65 = load i8, ptr %64, align 1, !tbaa !14
  %66 = zext i8 %65 to i32
  call void @_ZN6icu_779BytesTrie6appendERNS_8ByteSinkEi(ptr noundef nonnull align 8 dereferenceable(8) %63, i32 noundef %66)
  store i32 1, ptr %3, align 4
  store i32 1, ptr %7, align 4
  br label %67

67:                                               ; preds = %62, %56, %35
  call void @llvm.lifetime.end.p0(i64 4, ptr %8) #8
  br label %68

68:                                               ; preds = %67, %19, %14
  call void @llvm.lifetime.end.p0(i64 8, ptr %6) #8
  %69 = load i32, ptr %3, align 4
  ret i32 %69
}