; Function Attrs: mustprogress uwtable
define noundef range(i32 0, 257) i32 @_ZNK6icu_779BytesTrie12getNextBytesERNS_8ByteSinkE(ptr noundef nonnull readonly align 8 captures(none) dereferenceable(28) %0, ptr noundef nonnull align 8 dereferenceable(8) %1) local_unnamed_addr #10 align 2 {
  %3 = alloca i8, align 1
  %4 = alloca i8, align 1
  %5 = getelementptr inbounds nuw i8, ptr %0, i64 16
  %6 = load ptr, ptr %5, align 8, !tbaa !11
  %7 = icmp eq ptr %6, null
  br i1 %7, label %58, label %8

8:                                                ; preds = %2
  %9 = getelementptr inbounds nuw i8, ptr %0, i64 24
  %10 = load i32, ptr %9, align 8, !tbaa !12
  %11 = icmp sgt i32 %10, -1
  br i1 %11, label %12, label %17

12:                                               ; preds = %8
  %13 = load i8, ptr %6, align 1, !tbaa !10
  call void @llvm.lifetime.start.p0(i64 1, ptr nonnull %4) #13
  store i8 %13, ptr %4, align 1, !tbaa !10
  %14 = load ptr, ptr %1, align 8, !tbaa !22
  %15 = getelementptr inbounds nuw i8, ptr %14, i64 16
  %16 = load ptr, ptr %15, align 8
  call void %16(ptr noundef nonnull align 8 dereferenceable(8) %1, ptr noundef nonnull %4, i32 noundef 1)
  call void @llvm.lifetime.end.p0(i64 1, ptr nonnull %4) #13
  br label %58

17:                                               ; preds = %8
  %18 = getelementptr inbounds nuw i8, ptr %6, i64 1
  %19 = load i8, ptr %6, align 1, !tbaa !10
  %20 = zext i8 %19 to i32
  %21 = icmp ugt i8 %19, 31
  br i1 %21, label %22, label %43

22:                                               ; preds = %17
  %23 = and i32 %20, 1
  %.not = icmp eq i32 %23, 0
  br i1 %.not, label %24, label %58

24:                                               ; preds = %22
  %25 = icmp ugt i8 %19, -95
  br i1 %25, label %26, label %_ZN6icu_779BytesTrie9skipValueEPKhi.exit

26:                                               ; preds = %24
  %27 = icmp samesign ult i8 %19, -40
  br i1 %27, label %28, label %30

28:                                               ; preds = %26
  %29 = getelementptr inbounds nuw i8, ptr %6, i64 2
  br label %_ZN6icu_779BytesTrie9skipValueEPKhi.exit

30:                                               ; preds = %26
  %31 = icmp samesign ult i8 %19, -4
  br i1 %31, label %32, label %34

32:                                               ; preds = %30
  %33 = getelementptr inbounds nuw i8, ptr %6, i64 3
  br label %_ZN6icu_779BytesTrie9skipValueEPKhi.exit

34:                                               ; preds = %30
  %35 = lshr exact i32 %20, 1
  %36 = and i32 %35, 1
  %37 = zext nneg i32 %36 to i64
  %38 = getelementptr inbounds nuw i8, ptr %18, i64 %37
  %39 = getelementptr inbounds nuw i8, ptr %38, i64 3
  br label %_ZN6icu_779BytesTrie9skipValueEPKhi.exit

_ZN6icu_779BytesTrie9skipValueEPKhi.exit:         ; preds = %24, %28, %32, %34
  %.0.i = phi ptr [ %29, %28 ], [ %33, %32 ], [ %39, %34 ], [ %18, %24 ]
  %40 = getelementptr inbounds nuw i8, ptr %.0.i, i64 1
  %41 = load i8, ptr %.0.i, align 1, !tbaa !10
  %42 = zext i8 %41 to i32
  br label %43

43:                                               ; preds = %_ZN6icu_779BytesTrie9skipValueEPKhi.exit, %17
  %.019 = phi ptr [ %40, %_ZN6icu_779BytesTrie9skipValueEPKhi.exit ], [ %18, %17 ]
  %.0 = phi i32 [ %42, %_ZN6icu_779BytesTrie9skipValueEPKhi.exit ], [ %20, %17 ]
  %44 = icmp samesign ult i32 %.0, 16
  br i1 %44, label %45, label %53

45:                                               ; preds = %43
  %46 = icmp eq i32 %.0, 0
  br i1 %46, label %47, label %51

47:                                               ; preds = %45
  %48 = getelementptr inbounds nuw i8, ptr %.019, i64 1
  %49 = load i8, ptr %.019, align 1, !tbaa !10
  %50 = zext i8 %49 to i32
  br label %51

51:                                               ; preds = %47, %45
  %.120 = phi ptr [ %48, %47 ], [ %.019, %45 ]
  %.1 = phi i32 [ %50, %47 ], [ %.0, %45 ]
  %52 = add nuw nsw i32 %.1, 1
  tail call void @_ZN6icu_779BytesTrie18getNextBranchBytesEPKhiRNS_8ByteSinkE(ptr noundef nonnull %.120, i32 noundef %52, ptr noundef nonnull align 8 dereferenceable(8) %1)
  br label %58

53:                                               ; preds = %43
  %54 = load i8, ptr %.019, align 1, !tbaa !10
  call void @llvm.lifetime.start.p0(i64 1, ptr nonnull %3) #13
  store i8 %54, ptr %3, align 1, !tbaa !10
  %55 = load ptr, ptr %1, align 8, !tbaa !22
  %56 = getelementptr inbounds nuw i8, ptr %55, i64 16
  %57 = load ptr, ptr %56, align 8
  call void %57(ptr noundef nonnull align 8 dereferenceable(8) %1, ptr noundef nonnull %3, i32 noundef 1)
  call void @llvm.lifetime.end.p0(i64 1, ptr nonnull %3) #13
  br label %58

58:                                               ; preds = %51, %53, %22, %2, %12
  %.021 = phi i32 [ 1, %12 ], [ 0, %2 ], [ %52, %51 ], [ 1, %53 ], [ 0, %22 ]
  ret i32 %.021
}